target datalayout = "e-m:e-p270:32:32-p271:32:32-p272:64:64-i64:64-i128:128-f80:128-n8:16:32:64-S128"
target triple = "x86_64-pc-linux-gnu"

%"class.ncnn::Mat" = type { ptr, ptr, i64, i32, ptr, i32, i32, i32, i32, i32, i64 }
%struct.__ncnn_modelbin_t = type { ptr, ptr, ptr, ptr }

; Function Attrs: mustprogress uwtable
define internal noundef ptr @_ZL35__ncnn_ModelBinFromMatArray_load_1dP17__ncnn_modelbin_tii(ptr noundef %0, i32 noundef %1, i32 noundef %2) #1 personality ptr @__gxx_personality_v0 {
  %4 = alloca ptr, align 8
  %5 = alloca i32, align 4
  %6 = alloca i32, align 4
  %7 = alloca ptr, align 8
  %8 = alloca i32, align 4
  store ptr %0, ptr %4, align 8
  store i32 %1, ptr %5, align 4
  store i32 %2, ptr %6, align 4
  %9 = call noalias noundef nonnull ptr @_Znwm(i64 noundef 72) #13
  %10 = load ptr, ptr %4, align 8
  %11 = getelementptr inbounds nuw %struct.__ncnn_modelbin_t, ptr %10, i32 0, i32 0
  %12 = load ptr, ptr %11, align 8
  %13 = load i32, ptr %5, align 4
  %14 = load i32, ptr %6, align 4
  invoke void @_ZNK4ncnn20ModelBinFromMatArray4loadEii(ptr dead_on_unwind writable sret(%"class.ncnn::Mat") align 8 %9, ptr noundef nonnull align 8 dereferenceable(16) %12, i32 noundef %13, i32 noundef %14)
          to label %15 unwind label %16

15:                                               ; preds = %3
  ret ptr %9

16:                                               ; preds = %3
  %17 = landingpad { ptr, i32 }
          cleanup
  %18 = extractvalue { ptr, i32 } %17, 0
  store ptr %18, ptr %7, align 8
  %19 = extractvalue { ptr, i32 } %17, 1
  store i32 %19, ptr %8, align 4
  call void @_ZdlPvm(ptr noundef %9, i64 noundef 72) #14
  br label %20

20:                                               ; preds = %16
  %21 = load ptr, ptr %7, align 8
  %22 = load i32, ptr %8, align 4
  %23 = insertvalue { ptr, i32 } poison, ptr %21, 0
  %24 = insertvalue { ptr, i32 } %23, i32 %22, 1
  resume { ptr, i32 } %24
}