; Function Attrs: mustprogress uwtable
define internal noundef nonnull ptr @_ZL35__ncnn_ModelBinFromMatArray_load_1dP17__ncnn_modelbin_tii(ptr nocapture noundef readonly %0, i32 noundef %1, i32 noundef %2) #1 personality ptr @__gxx_personality_v0 {
  %4 = tail call noalias noundef nonnull dereferenceable(72) ptr @_Znwm(i64 noundef 72) #24
  %5 = load ptr, ptr %0, align 8
  invoke void @_ZNK4ncnn20ModelBinFromMatArray4loadEii(ptr dead_on_unwind nonnull writable sret(%"class.ncnn::Mat") align 8 %4, ptr noundef nonnull align 8 dereferenceable(16) %5, i32 noundef %1, i32 noundef %2)
          to label %6 unwind label %7

6:                                                ; preds = %3
  ret ptr %4

7:                                                ; preds = %3
  %8 = landingpad { ptr, i32 }
          cleanup
  tail call void @_ZdlPvm(ptr noundef nonnull %4, i64 noundef 72) #25
  resume { ptr, i32 } %8
}